target datalayout = "e-m:e-p270:32:32-p271:32:32-p272:64:64-i64:64-i128:128-f80:128-n8:16:32:64-S128"
target triple = "x86_64-pc-linux-gnu"

%struct.strbuf = type { i64, i64, ptr }
%struct.repository = type { ptr, ptr, ptr, ptr, ptr, %struct.strmap, %struct.strmap, %struct.repo_path_cache, ptr, ptr, ptr, ptr, %struct.repo_settings, ptr, ptr, ptr, ptr, ptr, ptr, i32, i32, i32, ptr, ptr, i32, i32, i8 }
%struct.strmap = type { %struct.hashmap, ptr, i8 }
%struct.hashmap = type { ptr, ptr, ptr, i32, i32, i32, i32, i8 }
%struct.repo_path_cache = type { ptr, ptr, ptr, ptr, ptr, ptr, ptr }
%struct.repo_settings = type { i32, i32, i32, i32, i32, i32, i32, i32, i32, i32, i32, i32, ptr, i32, i32, i32, i32, i32, i32, i32, i64, i64, i64 }
%struct.__va_list_tag = type { i32, i32, ptr, ptr }

@__const.repo_worktree_path.path = private unnamed_addr constant %struct.strbuf { i64 0, i64 0, ptr @strbuf_slopbuf }, align 8

; Function Attrs: nounwind uwtable
define dso_local ptr @repo_worktree_path(ptr noundef %0, ptr noundef %1, ...) #0 {
  %3 = alloca ptr, align 8
  %4 = alloca ptr, align 8
  %5 = alloca ptr, align 8
  %6 = alloca %struct.strbuf, align 8
  %7 = alloca [1 x %struct.__va_list_tag], align 16
  %8 = alloca i32, align 4
  store ptr %0, ptr %4, align 8, !tbaa !19
  store ptr %1, ptr %5, align 8, !tbaa !43
  call void @llvm.lifetime.start.p0(i64 24, ptr %6) #12
  call void @llvm.memcpy.p0.p0.i64(ptr align 8 %6, ptr align 8 @__const.repo_worktree_path.path, i64 24, i1 false)
  call void @llvm.lifetime.start.p0(i64 24, ptr %7) #12
  %9 = load ptr, ptr %4, align 8, !tbaa !19
  %10 = getelementptr inbounds nuw %struct.repository, ptr %9, i32 0, i32 10
  %11 = load ptr, ptr %10, align 8, !tbaa !77
  %12 = icmp ne ptr %11, null
  br i1 %12, label %14, label %13

13:                                               ; preds = %2
  store ptr null, ptr %3, align 8
  store i32 1, ptr %8, align 4
  br label %21

14:                                               ; preds = %2
  %15 = getelementptr inbounds [1 x %struct.__va_list_tag], ptr %7, i64 0, i64 0
  call void @llvm.va_start.p0(ptr %15)
  %16 = load ptr, ptr %4, align 8, !tbaa !19
  %17 = load ptr, ptr %5, align 8, !tbaa !43
  %18 = getelementptr inbounds [1 x %struct.__va_list_tag], ptr %7, i64 0, i64 0
  call void @do_worktree_path(ptr noundef %16, ptr noundef %6, ptr noundef %17, ptr noundef %18)
  %19 = getelementptr inbounds [1 x %struct.__va_list_tag], ptr %7, i64 0, i64 0
  call void @llvm.va_end.p0(ptr %19)
  %20 = call ptr @strbuf_detach(ptr noundef %6, ptr noundef null)
  store ptr %20, ptr %3, align 8
  store i32 1, ptr %8, align 4
  br label %21

21:                                               ; preds = %14, %13
  call void @llvm.lifetime.end.p0(i64 24, ptr %7) #12
  call void @llvm.lifetime.end.p0(i64 24, ptr %6) #12
  %22 = load ptr, ptr %3, align 8
  ret ptr %22
}