; Function Attrs: nounwind uwtable
define dso_local ptr @repo_worktree_path(ptr noundef readonly captures(none) %0, ptr noundef %1, ...) local_unnamed_addr #3 {
  %3 = alloca %struct.strbuf, align 8
  %4 = alloca [1 x %struct.__va_list_tag], align 16
  call void @llvm.lifetime.start.p0(i64 24, ptr nonnull %3) #29
  call void @llvm.memcpy.p0.p0.i64(ptr noundef nonnull align 8 dereferenceable(24) %3, ptr noundef nonnull align 8 dereferenceable(24) @__const.do_submodule_path.git_submodule_dir, i64 24, i1 false)
  call void @llvm.lifetime.start.p0(i64 24, ptr nonnull %4) #29
  %5 = getelementptr inbounds nuw i8, ptr %0, i64 240
  %6 = load ptr, ptr %5, align 8, !tbaa !69
  %.not = icmp eq ptr %6, null
  br i1 %.not, label %9, label %7

7:                                                ; preds = %2
  call void @llvm.va_start.p0(ptr nonnull %4)
  %.val = load ptr, ptr %5, align 8, !tbaa !69
  call fastcc void @do_worktree_path(ptr %.val, ptr noundef nonnull %3, ptr noundef %1, ptr noundef %4)
  call void @llvm.va_end.p0(ptr nonnull %4)
  %8 = call ptr @strbuf_detach(ptr noundef nonnull %3, ptr noundef null) #29
  br label %9

9:                                                ; preds = %2, %7
  %.0 = phi ptr [ %8, %7 ], [ null, %2 ]
  call void @llvm.lifetime.end.p0(i64 24, ptr nonnull %4) #29
  call void @llvm.lifetime.end.p0(i64 24, ptr nonnull %3) #29
  ret ptr %.0
}